; ModuleID = '38/1159.c'
source_filename = "38/1159.c"
target datalayout = "e-m:e-p270:32:32-p271:32:32-p272:64:64-i64:64-f80:128-n8:16:32:64-S128"
target triple = "x86_64-pc-linux-gnu"

@.str = private unnamed_addr constant [3 x i8] c"%d\00", align 1
@.str.1 = private unnamed_addr constant [4 x i8] c"%lf\00", align 1
@.str.2 = private unnamed_addr constant [6 x i8] c"%.5f\0A\00", align 1

; Function Attrs: noinline nounwind uwtable
define dso_local i32 @main() #0 {
  %1 = alloca i32, align 4
  %2 = alloca i32, align 4
  %3 = alloca i32, align 4
  %4 = alloca i32, align 4
  %5 = alloca i32, align 4
  %6 = alloca [100 x double], align 16
  %7 = alloca double, align 8
  %8 = alloca double, align 8
  %9 = alloca double, align 8
  %10 = alloca double, align 8
  store i32 0, i32* %1, align 4
  store i32 0, i32* %3, align 4
  %11 = call i32 (i8*, ...) @__isoc99_scanf(i8* getelementptr inbounds ([3 x i8], [3 x i8]* @.str, i64 0, i64 0), i32* %2)
  store i32 1, i32* %3, align 4
  br label %12

12:                                               ; preds = %68, %0
  %13 = load i32, i32* %3, align 4
  %14 = load i32, i32* %2, align 4
  %15 = icmp sle i32 %13, %14
  br i1 %15, label %16, label %71

16:                                               ; preds = %12
  %17 = call i32 (i8*, ...) @__isoc99_scanf(i8* getelementptr inbounds ([3 x i8], [3 x i8]* @.str, i64 0, i64 0), i32* %4)
  store double 0.000000e+00, double* %7, align 8
  store i32 0, i32* %5, align 4
  br label %18

18:                                               ; preds = %34, %16
  %19 = load i32, i32* %5, align 4
  %20 = load i32, i32* %4, align 4
  %21 = sub nsw i32 %20, 1
  %22 = icmp sle i32 %19, %21
  br i1 %22, label %23, label %37

23:                                               ; preds = %18
  %24 = load i32, i32* %5, align 4
  %25 = sext i32 %24 to i64
  %26 = getelementptr inbounds [100 x double], [100 x double]* %6, i64 0, i64 %25
  %27 = call i32 (i8*, ...) @__isoc99_scanf(i8* getelementptr inbounds ([4 x i8], [4 x i8]* @.str.1, i64 0, i64 0), double* %26)
  %28 = load double, double* %7, align 8
  %29 = load i32, i32* %5, align 4
  %30 = sext i32 %29 to i64
  %31 = getelementptr inbounds [100 x double], [100 x double]* %6, i64 0, i64 %30
  %32 = load double, double* %31, align 8
  %33 = fadd double %28, %32
  store double %33, double* %7, align 8
  br label %34

34:                                               ; preds = %23
  %35 = load i32, i32* %5, align 4
  %36 = add nsw i32 %35, 1
  store i32 %36, i32* %5, align 4
  br label %18

37:                                               ; preds = %18
  store double 0.000000e+00, double* %9, align 8
  %38 = load double, double* %7, align 8
  %39 = load i32, i32* %4, align 4
  %40 = sitofp i32 %39 to double
  %41 = fdiv double %38, %40
  store double %41, double* %8, align 8
  store i32 0, i32* %5, align 4
  br label %42

42:                                               ; preds = %57, %37
  %43 = load i32, i32* %5, align 4
  %44 = load i32, i32* %4, align 4
  %45 = sub nsw i32 %44, 1
  %46 = icmp sle i32 %43, %45
  br i1 %46, label %47, label %60

47:                                               ; preds = %42
  %48 = load double, double* %9, align 8
  %49 = load i32, i32* %5, align 4
  %50 = sext i32 %49 to i64
  %51 = getelementptr inbounds [100 x double], [100 x double]* %6, i64 0, i64 %50
  %52 = load double, double* %51, align 8
  %53 = load double, double* %8, align 8
  %54 = fsub double %52, %53
  %55 = call double @pow(double %54, double 2.000000e+00) #3
  %56 = fadd double %48, %55
  store double %56, double* %9, align 8
  br label %57

57:                                               ; preds = %47
  %58 = load i32, i32* %5, align 4
  %59 = add nsw i32 %58, 1
  store i32 %59, i32* %5, align 4
  br label %42

60:                                               ; preds = %42
  %61 = load double, double* %9, align 8
  %62 = load i32, i32* %4, align 4
  %63 = sitofp i32 %62 to double
  %64 = fdiv double %61, %63
  %65 = call double @sqrt(double %64) #3
  store double %65, double* %10, align 8
  %66 = load double, double* %10, align 8
  %67 = call i32 (i8*, ...) @printf(i8* getelementptr inbounds ([6 x i8], [6 x i8]* @.str.2, i64 0, i64 0), double %66)
  br label %68

68:                                               ; preds = %60
  %69 = load i32, i32* %3, align 4
  %70 = add nsw i32 %69, 1
  store i32 %70, i32* %3, align 4
  br label %12

71:                                               ; preds = %12
  ret i32 0
}

declare dso_local i32 @__isoc99_scanf(i8*, ...) #1

; Function Attrs: nounwind
declare dso_local double @pow(double, double) #2

; Function Attrs: nounwind
declare dso_local double @sqrt(double) #2

declare dso_local i32 @printf(i8*, ...) #1


!llvm.module.flags = !{!0}
!llvm.ident = !{!1}

!0 = !{i32 1, !"wchar_size", i32 4}
!1 = !{!"clang version 10.0.0-4ubuntu1 "}
